target datalayout = "e-m:e-p270:32:32-p271:32:32-p272:64:64-i64:64-i128:128-f80:128-n8:16:32:64-S128"
target triple = "x86_64-pc-linux-gnu"

%struct.MultirangeType = type { i32, i32, i32 }
%struct.RangeBound = type { i64, i8, i8, i8 }

; Function Attrs: nounwind uwtable
define dso_local zeroext i1 @range_after_multirange_internal(ptr noundef %0, ptr noundef %1, ptr noundef %2) #0 {
  %4 = alloca i1, align 1
  %5 = alloca ptr, align 8
  %6 = alloca ptr, align 8
  %7 = alloca ptr, align 8
  %8 = alloca %struct.RangeBound, align 8
  %9 = alloca %struct.RangeBound, align 8
  %10 = alloca %struct.RangeBound, align 8
  %11 = alloca %struct.RangeBound, align 8
  %12 = alloca i8, align 1
  %13 = alloca i32, align 4
  %14 = alloca i32, align 4
  store ptr %0, ptr %5, align 8
  store ptr %1, ptr %6, align 8
  store ptr %2, ptr %7, align 8
  call void @llvm.lifetime.start.p0(i64 16, ptr %8) #9
  call void @llvm.lifetime.start.p0(i64 16, ptr %9) #9
  call void @llvm.lifetime.start.p0(i64 16, ptr %10) #9
  call void @llvm.lifetime.start.p0(i64 16, ptr %11) #9
  call void @llvm.lifetime.start.p0(i64 1, ptr %12) #9
  call void @llvm.lifetime.start.p0(i64 4, ptr %13) #9
  %15 = load ptr, ptr %6, align 8
  %16 = call signext i8 @range_get_flags(ptr noundef %15)
  %17 = sext i8 %16 to i32
  %18 = and i32 %17, 1
  %19 = icmp ne i32 %18, 0
  br i1 %19, label %25, label %20

20:                                               ; preds = %3
  %21 = load ptr, ptr %7, align 8
  %22 = getelementptr inbounds nuw %struct.MultirangeType, ptr %21, i32 0, i32 2
  %23 = load i32, ptr %22, align 4
  %24 = icmp eq i32 %23, 0
  br i1 %24, label %25, label %26

25:                                               ; preds = %20, %3
  store i1 false, ptr %4, align 1
  store i32 1, ptr %14, align 4
  br label %39

26:                                               ; preds = %20
  %27 = load ptr, ptr %5, align 8
  %28 = load ptr, ptr %6, align 8
  call void @range_deserialize(ptr noundef %27, ptr noundef %28, ptr noundef %8, ptr noundef %9, ptr noundef %12)
  %29 = load ptr, ptr %7, align 8
  %30 = getelementptr inbounds nuw %struct.MultirangeType, ptr %29, i32 0, i32 2
  %31 = load i32, ptr %30, align 4
  store i32 %31, ptr %13, align 4
  %32 = load ptr, ptr %5, align 8
  %33 = load ptr, ptr %7, align 8
  %34 = load i32, ptr %13, align 4
  %35 = sub i32 %34, 1
  call void @multirange_get_bounds(ptr noundef %32, ptr noundef %33, i32 noundef %35, ptr noundef %10, ptr noundef %11)
  %36 = load ptr, ptr %5, align 8
  %37 = call i32 @range_cmp_bounds(ptr noundef %36, ptr noundef %8, ptr noundef %11)
  %38 = icmp sgt i32 %37, 0
  store i1 %38, ptr %4, align 1
  store i32 1, ptr %14, align 4
  br label %39

39:                                               ; preds = %26, %25
  call void @llvm.lifetime.end.p0(i64 4, ptr %13) #9
  call void @llvm.lifetime.end.p0(i64 1, ptr %12) #9
  call void @llvm.lifetime.end.p0(i64 16, ptr %11) #9
  call void @llvm.lifetime.end.p0(i64 16, ptr %10) #9
  call void @llvm.lifetime.end.p0(i64 16, ptr %9) #9
  call void @llvm.lifetime.end.p0(i64 16, ptr %8) #9
  %40 = load i1, ptr %4, align 1
  ret i1 %40
}