; Function Attrs: nounwind uwtable
define dso_local zeroext i1 @range_after_multirange_internal(ptr noundef %0, ptr noundef %1, ptr noundef %2) local_unnamed_addr #0 {
  %4 = alloca %struct.RangeBound, align 8
  %5 = alloca %struct.RangeBound, align 8
  %6 = alloca %struct.RangeBound, align 8
  %7 = alloca %struct.RangeBound, align 8
  %8 = alloca i8, align 1
  call void @llvm.lifetime.start.p0(i64 16, ptr nonnull %4) #11
  call void @llvm.lifetime.start.p0(i64 16, ptr nonnull %5) #11
  call void @llvm.lifetime.start.p0(i64 16, ptr nonnull %6) #11
  call void @llvm.lifetime.start.p0(i64 16, ptr nonnull %7) #11
  call void @llvm.lifetime.start.p0(i64 1, ptr nonnull %8) #11
  %9 = tail call signext i8 @range_get_flags(ptr noundef %1) #11
  %10 = and i8 %9, 1
  %.not = icmp eq i8 %10, 0
  br i1 %.not, label %11, label %20

11:                                               ; preds = %3
  %12 = getelementptr inbounds nuw i8, ptr %2, i64 8
  %13 = load i32, ptr %12, align 4
  %14 = icmp eq i32 %13, 0
  br i1 %14, label %20, label %15

15:                                               ; preds = %11
  call void @range_deserialize(ptr noundef %0, ptr noundef %1, ptr noundef nonnull %4, ptr noundef nonnull %5, ptr noundef nonnull %8) #11
  %16 = load i32, ptr %12, align 4
  %17 = add i32 %16, -1
  call void @multirange_get_bounds(ptr noundef %0, ptr noundef nonnull %2, i32 noundef %17, ptr noundef nonnull %6, ptr noundef nonnull %7)
  %18 = call i32 @range_cmp_bounds(ptr noundef %0, ptr noundef nonnull %4, ptr noundef nonnull %7) #11
  %19 = icmp sgt i32 %18, 0
  br label %20

20:                                               ; preds = %3, %11, %15
  %.0 = phi i1 [ %19, %15 ], [ false, %11 ], [ false, %3 ]
  call void @llvm.lifetime.end.p0(i64 1, ptr nonnull %8) #11
  call void @llvm.lifetime.end.p0(i64 16, ptr nonnull %7) #11
  call void @llvm.lifetime.end.p0(i64 16, ptr nonnull %6) #11
  call void @llvm.lifetime.end.p0(i64 16, ptr nonnull %5) #11
  call void @llvm.lifetime.end.p0(i64 16, ptr nonnull %4) #11
  ret i1 %.0
}